target datalayout = "e-m:e-p270:32:32-p271:32:32-p272:64:64-i64:64-i128:128-f80:128-n8:16:32:64-S128"
target triple = "x86_64-pc-linux-gnu"

@.str.16 = private unnamed_addr constant [26 x i8] c"../openssl/test/ct_test.c\00", align 1
@__const.test_ctlog_from_base64.notb64 = private unnamed_addr constant [5 x i8] c"\01\02\03\04\00", align 1
@__const.test_ctlog_from_base64.pad = private unnamed_addr constant [5 x i8] c"====\00", align 1
@__const.test_ctlog_from_base64.name = private unnamed_addr constant [5 x i8] c"name\00", align 1
@.str.55 = private unnamed_addr constant [46 x i8] c"!CTLOG_new_from_base64(&ctlogp, notb64, name)\00", align 1
@.str.56 = private unnamed_addr constant [43 x i8] c"!CTLOG_new_from_base64(&ctlogp, pad, name)\00", align 1

; Function Attrs: nounwind uwtable
define internal i32 @test_ctlog_from_base64() #0 {
  %1 = alloca i32, align 4
  %2 = alloca ptr, align 8
  %3 = alloca [5 x i8], align 1
  %4 = alloca [5 x i8], align 1
  %5 = alloca [5 x i8], align 1
  %6 = alloca i32, align 4
  call void @llvm.lifetime.start.p0(i64 8, ptr %2) #9
  store ptr null, ptr %2, align 8, !tbaa !34
  call void @llvm.lifetime.start.p0(i64 5, ptr %3) #9
  call void @llvm.memcpy.p0.p0.i64(ptr align 1 %3, ptr align 1 @__const.test_ctlog_from_base64.notb64, i64 5, i1 false)
  call void @llvm.lifetime.start.p0(i64 5, ptr %4) #9
  call void @llvm.memcpy.p0.p0.i64(ptr align 1 %4, ptr align 1 @__const.test_ctlog_from_base64.pad, i64 5, i1 false)
  call void @llvm.lifetime.start.p0(i64 5, ptr %5) #9
  call void @llvm.memcpy.p0.p0.i64(ptr align 1 %5, ptr align 1 @__const.test_ctlog_from_base64.name, i64 5, i1 false)
  %7 = getelementptr inbounds [5 x i8], ptr %3, i64 0, i64 0
  %8 = getelementptr inbounds [5 x i8], ptr %5, i64 0, i64 0
  %9 = call i32 @CTLOG_new_from_base64(ptr noundef %2, ptr noundef %7, ptr noundef %8)
  %10 = icmp ne i32 %9, 0
  %11 = xor i1 %10, true
  %12 = zext i1 %11 to i32
  %13 = icmp ne i32 %12, 0
  %14 = zext i1 %13 to i32
  %15 = call i32 @test_true(ptr noundef @.str.16, i32 noundef 507, ptr noundef @.str.55, i32 noundef %14)
  %16 = icmp ne i32 %15, 0
  br i1 %16, label %17, label %28

17:                                               ; preds = %0
  %18 = getelementptr inbounds [5 x i8], ptr %4, i64 0, i64 0
  %19 = getelementptr inbounds [5 x i8], ptr %5, i64 0, i64 0
  %20 = call i32 @CTLOG_new_from_base64(ptr noundef %2, ptr noundef %18, ptr noundef %19)
  %21 = icmp ne i32 %20, 0
  %22 = xor i1 %21, true
  %23 = zext i1 %22 to i32
  %24 = icmp ne i32 %23, 0
  %25 = zext i1 %24 to i32
  %26 = call i32 @test_true(ptr noundef @.str.16, i32 noundef 508, ptr noundef @.str.56, i32 noundef %25)
  %27 = icmp ne i32 %26, 0
  br i1 %27, label %29, label %28

28:                                               ; preds = %17, %0
  store i32 0, ptr %1, align 4
  store i32 1, ptr %6, align 4
  br label %30

29:                                               ; preds = %17
  store i32 1, ptr %1, align 4
  store i32 1, ptr %6, align 4
  br label %30

30:                                               ; preds = %29, %28
  call void @llvm.lifetime.end.p0(i64 5, ptr %5) #9
  call void @llvm.lifetime.end.p0(i64 5, ptr %4) #9
  call void @llvm.lifetime.end.p0(i64 5, ptr %3) #9
  call void @llvm.lifetime.end.p0(i64 8, ptr %2) #9
  %31 = load i32, ptr %1, align 4
  ret i32 %31
}