; Function Attrs: nounwind uwtable
define internal range(i32 0, 2) i32 @test_ctlog_from_base64() #0 {
  %1 = alloca ptr, align 8
  %2 = alloca [5 x i8], align 1
  %3 = alloca [5 x i8], align 1
  %4 = alloca [5 x i8], align 1
  call void @llvm.lifetime.start.p0(i64 8, ptr nonnull %1) #8
  store ptr null, ptr %1, align 8, !tbaa !27
  call void @llvm.lifetime.start.p0(i64 5, ptr nonnull %2) #8
  call void @llvm.memcpy.p0.p0.i64(ptr noundef nonnull align 1 dereferenceable(5) %2, ptr noundef nonnull align 1 dereferenceable(5) @__const.test_ctlog_from_base64.notb64, i64 5, i1 false)
  call void @llvm.lifetime.start.p0(i64 5, ptr nonnull %3) #8
  call void @llvm.memcpy.p0.p0.i64(ptr noundef nonnull align 1 dereferenceable(5) %3, ptr noundef nonnull align 1 dereferenceable(5) @__const.test_ctlog_from_base64.pad, i64 5, i1 false)
  call void @llvm.lifetime.start.p0(i64 5, ptr nonnull %4) #8
  call void @llvm.memcpy.p0.p0.i64(ptr noundef nonnull align 1 dereferenceable(5) %4, ptr noundef nonnull align 1 dereferenceable(5) @__const.test_ctlog_from_base64.name, i64 5, i1 false)
  %5 = call i32 @CTLOG_new_from_base64(ptr noundef nonnull %1, ptr noundef nonnull %2, ptr noundef nonnull %4) #8
  %.not = icmp eq i32 %5, 0
  %6 = zext i1 %.not to i32
  %7 = call i32 @test_true(ptr noundef nonnull @.str.16, i32 noundef 507, ptr noundef nonnull @.str.55, i32 noundef %6) #8
  %.not1 = icmp eq i32 %7, 0
  br i1 %.not1, label %12, label %8

8:                                                ; preds = %0
  %9 = call i32 @CTLOG_new_from_base64(ptr noundef nonnull %1, ptr noundef nonnull %3, ptr noundef nonnull %4) #8
  %.not2 = icmp eq i32 %9, 0
  %10 = zext i1 %.not2 to i32
  %11 = call i32 @test_true(ptr noundef nonnull @.str.16, i32 noundef 508, ptr noundef nonnull @.str.56, i32 noundef %10) #8
  %.not3 = icmp ne i32 %11, 0
  %spec.select = zext i1 %.not3 to i32
  br label %12

12:                                               ; preds = %8, %0
  %.0 = phi i32 [ 0, %0 ], [ %spec.select, %8 ]
  call void @llvm.lifetime.end.p0(i64 5, ptr nonnull %4) #8
  call void @llvm.lifetime.end.p0(i64 5, ptr nonnull %3) #8
  call void @llvm.lifetime.end.p0(i64 5, ptr nonnull %2) #8
  call void @llvm.lifetime.end.p0(i64 8, ptr nonnull %1) #8
  ret i32 %.0
}